target datalayout = "e-m:e-p270:32:32-p271:32:32-p272:64:64-i64:64-i128:128-f80:128-n8:16:32:64-S128"
target triple = "x86_64-pc-linux-gnu"

%struct.exr_attr_box2i_t = type { %struct.exr_attr_v2i_t, %struct.exr_attr_v2i_t }
%struct.exr_attr_v2i_t = type { i32, i32 }
%struct._priv_exr_part_t = type { i32, i32, %struct.exr_attribute_list, ptr, ptr, ptr, ptr, ptr, ptr, ptr, ptr, ptr, ptr, ptr, ptr, ptr, ptr, %struct.exr_attr_box2i_t, %struct.exr_attr_box2i_t, i32, i32, i32, float, i32, i32, ptr, ptr, ptr, ptr, i64, i16, i16, i32, i64, i64 }
%struct.exr_attribute_list = type { i32, i32, ptr, ptr }
%struct._priv_exr_context_t = type { i8, i8, i8, i8, i8, i8, i8, i8, %struct.exr_attr_string_t, %struct.exr_attr_string_t, ptr, ptr, ptr, ptr, ptr, ptr, ptr, ptr, i32, i32, i32, i32, i32, float, ptr, ptr, ptr, i64, ptr, ptr, i64, i32, i32, i32, i32, %struct._priv_exr_part_t, ptr, ptr, %struct.exr_attribute_list, %union.pthread_mutex_t, i8, i8, [2 x i8], i32 }
%struct.exr_attr_string_t = type { i32, i32, ptr }
%union.pthread_mutex_t = type { %struct.__pthread_mutex_s }
%struct.__pthread_mutex_s = type { i32, i32, i32, i32, i32, i16, i16, %struct.__pthread_internal_list }
%struct.__pthread_internal_list = type { ptr, ptr }

@.str.10 = private unnamed_addr constant [39 x i8] c"Unable to read magic and version flags\00", align 1
@.str.11 = private unnamed_addr constant [60 x i8] c"File is not an OpenEXR file: magic 0x%08X (%d) flags 0x%08X\00", align 1
@.str.12 = private unnamed_addr constant [65 x i8] c"File is of an unsupported version: %d, magic 0x%08X flags 0x%08X\00", align 1
@.str.13 = private unnamed_addr constant [57 x i8] c"File has an unsupported flags: magic 0x%08X flags 0x%08X\00", align 1

; Function Attrs: inlinehint nounwind uwtable
define internal void @priv_to_native32(ptr noundef %0, i32 noundef %1) #4 {
  %3 = alloca ptr, align 8
  %4 = alloca i32, align 4
  store ptr %0, ptr %3, align 8, !tbaa !34
  store i32 %1, ptr %4, align 4, !tbaa !10
  ret void
}

; Function Attrs: nounwind uwtable
define internal i32 @read_magic_and_flags(ptr noundef %0, ptr noundef %1, ptr noundef %2) #0 {
  %4 = alloca i32, align 4
  %5 = alloca ptr, align 8
  %6 = alloca ptr, align 8
  %7 = alloca ptr, align 8
  %8 = alloca [2 x i32], align 4
  %9 = alloca i32, align 4
  %10 = alloca i32, align 4
  %11 = alloca i64, align 8
  %12 = alloca i64, align 8
  %13 = alloca i32, align 4
  store ptr %0, ptr %5, align 8, !tbaa !3
  store ptr %1, ptr %6, align 8, !tbaa !35
  store ptr %2, ptr %7, align 8, !tbaa !75
  call void @llvm.lifetime.start.p0(i64 8, ptr %8) #7
  call void @llvm.lifetime.start.p0(i64 4, ptr %9) #7
  call void @llvm.lifetime.start.p0(i64 4, ptr %10) #7
  store i32 33, ptr %10, align 4, !tbaa !10
  call void @llvm.lifetime.start.p0(i64 8, ptr %11) #7
  store i64 0, ptr %11, align 8, !tbaa !38
  call void @llvm.lifetime.start.p0(i64 8, ptr %12) #7
  store i64 0, ptr %12, align 8, !tbaa !38
  %14 = load ptr, ptr %5, align 8, !tbaa !3
  %15 = getelementptr inbounds nuw %struct._priv_exr_context_t, ptr %14, i32 0, i32 10
  %16 = load ptr, ptr %15, align 8, !tbaa !77
  %17 = load ptr, ptr %5, align 8, !tbaa !3
  %18 = getelementptr inbounds [2 x i32], ptr %8, i64 0, i64 0
  %19 = call i32 %16(ptr noundef %17, ptr noundef %18, i64 noundef 8, ptr noundef %11, ptr noundef %12, i32 noundef 0)
  store i32 %19, ptr %10, align 4, !tbaa !10
  %20 = load i32, ptr %10, align 4, !tbaa !10
  %21 = icmp ne i32 %20, 0
  br i1 %21, label %22, label %29

22:                                               ; preds = %3
  %23 = load ptr, ptr %5, align 8, !tbaa !3
  %24 = getelementptr inbounds nuw %struct._priv_exr_context_t, ptr %23, i32 0, i32 13
  %25 = load ptr, ptr %24, align 8, !tbaa !78
  %26 = load ptr, ptr %5, align 8, !tbaa !3
  %27 = call i32 %25(ptr noundef %26, i32 noundef 10, ptr noundef @.str.10)
  %28 = load i32, ptr %10, align 4, !tbaa !10
  store i32 %28, ptr %4, align 4
  store i32 1, ptr %13, align 4
  br label %99

29:                                               ; preds = %3
  %30 = load ptr, ptr %7, align 8, !tbaa !75
  store i64 8, ptr %30, align 8, !tbaa !38
  %31 = getelementptr inbounds [2 x i32], ptr %8, i64 0, i64 0
  call void @priv_to_native32(ptr noundef %31, i32 noundef 2)
  %32 = getelementptr inbounds [2 x i32], ptr %8, i64 0, i64 0
  %33 = load i32, ptr %32, align 4, !tbaa !10
  %34 = icmp ne i32 %33, 20000630
  br i1 %34, label %35, label %48

35:                                               ; preds = %29
  %36 = load ptr, ptr %5, align 8, !tbaa !3
  %37 = getelementptr inbounds nuw %struct._priv_exr_context_t, ptr %36, i32 0, i32 14
  %38 = load ptr, ptr %37, align 8, !tbaa !48
  %39 = load ptr, ptr %5, align 8, !tbaa !3
  %40 = getelementptr inbounds [2 x i32], ptr %8, i64 0, i64 0
  %41 = load i32, ptr %40, align 4, !tbaa !10
  %42 = getelementptr inbounds [2 x i32], ptr %8, i64 0, i64 0
  %43 = load i32, ptr %42, align 4, !tbaa !10
  %44 = getelementptr inbounds [2 x i32], ptr %8, i64 0, i64 1
  %45 = load i32, ptr %44, align 4, !tbaa !10
  %46 = call i32 (ptr, i32, ptr, ...) %38(ptr noundef %39, i32 noundef 6, ptr noundef @.str.11, i32 noundef %41, i32 noundef %43, i32 noundef %45)
  store i32 %46, ptr %10, align 4, !tbaa !10
  %47 = load i32, ptr %10, align 4, !tbaa !10
  store i32 %47, ptr %4, align 4
  store i32 1, ptr %13, align 4
  br label %99

48:                                               ; preds = %29
  %49 = getelementptr inbounds [2 x i32], ptr %8, i64 0, i64 1
  %50 = load i32, ptr %49, align 4, !tbaa !10
  store i32 %50, ptr %9, align 4, !tbaa !10
  %51 = load i32, ptr %9, align 4, !tbaa !10
  %52 = load ptr, ptr %5, align 8, !tbaa !3
  %53 = getelementptr inbounds nuw %struct._priv_exr_context_t, ptr %52, i32 0, i32 43
  store i32 %51, ptr %53, align 4, !tbaa !79
  %54 = load i32, ptr %9, align 4, !tbaa !10
  %55 = and i32 %54, 255
  %56 = trunc i32 %55 to i8
  %57 = load ptr, ptr %5, align 8, !tbaa !3
  %58 = getelementptr inbounds nuw %struct._priv_exr_context_t, ptr %57, i32 0, i32 1
  store i8 %56, ptr %58, align 1, !tbaa !80
  %59 = load ptr, ptr %5, align 8, !tbaa !3
  %60 = getelementptr inbounds nuw %struct._priv_exr_context_t, ptr %59, i32 0, i32 1
  %61 = load i8, ptr %60, align 1, !tbaa !80
  %62 = zext i8 %61 to i32
  %63 = icmp ne i32 %62, 2
  br i1 %63, label %64, label %79

64:                                               ; preds = %48
  %65 = load ptr, ptr %5, align 8, !tbaa !3
  %66 = getelementptr inbounds nuw %struct._priv_exr_context_t, ptr %65, i32 0, i32 14
  %67 = load ptr, ptr %66, align 8, !tbaa !48
  %68 = load ptr, ptr %5, align 8, !tbaa !3
  %69 = load ptr, ptr %5, align 8, !tbaa !3
  %70 = getelementptr inbounds nuw %struct._priv_exr_context_t, ptr %69, i32 0, i32 1
  %71 = load i8, ptr %70, align 1, !tbaa !80
  %72 = zext i8 %71 to i32
  %73 = getelementptr inbounds [2 x i32], ptr %8, i64 0, i64 0
  %74 = load i32, ptr %73, align 4, !tbaa !10
  %75 = getelementptr inbounds [2 x i32], ptr %8, i64 0, i64 1
  %76 = load i32, ptr %75, align 4, !tbaa !10
  %77 = call i32 (ptr, i32, ptr, ...) %67(ptr noundef %68, i32 noundef 6, ptr noundef @.str.12, i32 noundef %72, i32 noundef %74, i32 noundef %76)
  store i32 %77, ptr %10, align 4, !tbaa !10
  %78 = load i32, ptr %10, align 4, !tbaa !10
  store i32 %78, ptr %4, align 4
  store i32 1, ptr %13, align 4
  br label %99

79:                                               ; preds = %48
  %80 = load i32, ptr %9, align 4, !tbaa !10
  %81 = and i32 %80, -256
  store i32 %81, ptr %9, align 4, !tbaa !10
  %82 = load i32, ptr %9, align 4, !tbaa !10
  %83 = and i32 %82, -7681
  %84 = icmp ne i32 %83, 0
  br i1 %84, label %85, label %96

85:                                               ; preds = %79
  %86 = load ptr, ptr %5, align 8, !tbaa !3
  %87 = getelementptr inbounds nuw %struct._priv_exr_context_t, ptr %86, i32 0, i32 14
  %88 = load ptr, ptr %87, align 8, !tbaa !48
  %89 = load ptr, ptr %5, align 8, !tbaa !3
  %90 = getelementptr inbounds [2 x i32], ptr %8, i64 0, i64 0
  %91 = load i32, ptr %90, align 4, !tbaa !10
  %92 = getelementptr inbounds [2 x i32], ptr %8, i64 0, i64 1
  %93 = load i32, ptr %92, align 4, !tbaa !10
  %94 = call i32 (ptr, i32, ptr, ...) %88(ptr noundef %89, i32 noundef 6, ptr noundef @.str.13, i32 noundef %91, i32 noundef %93)
  store i32 %94, ptr %10, align 4, !tbaa !10
  %95 = load i32, ptr %10, align 4, !tbaa !10
  store i32 %95, ptr %4, align 4
  store i32 1, ptr %13, align 4
  br label %99

96:                                               ; preds = %79
  %97 = load i32, ptr %9, align 4, !tbaa !10
  %98 = load ptr, ptr %6, align 8, !tbaa !35
  store i32 %97, ptr %98, align 4, !tbaa !10
  store i32 0, ptr %4, align 4
  store i32 1, ptr %13, align 4
  br label %99

99:                                               ; preds = %96, %85, %64, %35, %22
  call void @llvm.lifetime.end.p0(i64 8, ptr %12) #7
  call void @llvm.lifetime.end.p0(i64 8, ptr %11) #7
  call void @llvm.lifetime.end.p0(i64 4, ptr %10) #7
  call void @llvm.lifetime.end.p0(i64 4, ptr %9) #7
  call void @llvm.lifetime.end.p0(i64 8, ptr %8) #7
  %100 = load i32, ptr %4, align 4
  ret i32 %100
}

; Function Attrs: nounwind uwtable
define hidden i32 @internal_exr_check_magic(ptr noundef %0) #0 {
  %2 = alloca ptr, align 8
  %3 = alloca i32, align 4
  %4 = alloca i64, align 8
  %5 = alloca i32, align 4
  store ptr %0, ptr %2, align 8, !tbaa !3
  call void @llvm.lifetime.start.p0(i64 4, ptr %3) #7
  call void @llvm.lifetime.start.p0(i64 8, ptr %4) #7
  call void @llvm.lifetime.start.p0(i64 4, ptr %5) #7
  store i32 33, ptr %5, align 4, !tbaa !10
  %6 = load ptr, ptr %2, align 8, !tbaa !3
  %7 = call i32 @read_magic_and_flags(ptr noundef %6, ptr noundef %3, ptr noundef %4)
  store i32 %7, ptr %5, align 4, !tbaa !10
  %8 = load i32, ptr %5, align 4, !tbaa !10
  call void @llvm.lifetime.end.p0(i64 4, ptr %5) #7
  call void @llvm.lifetime.end.p0(i64 8, ptr %4) #7
  call void @llvm.lifetime.end.p0(i64 4, ptr %3) #7
  ret i32 %8
}