; Function Attrs: nounwind uwtable
define hidden i32 @internal_exr_check_magic(ptr noundef %0) local_unnamed_addr #0 {
  %2 = alloca [2 x i32], align 4
  %3 = alloca i64, align 8
  %4 = alloca i64, align 8
  call void @llvm.lifetime.start.p0(i64 8, ptr nonnull %2) #9
  call void @llvm.lifetime.start.p0(i64 8, ptr nonnull %3) #9
  store i64 0, ptr %3, align 8, !tbaa !64
  call void @llvm.lifetime.start.p0(i64 8, ptr nonnull %4) #9
  store i64 0, ptr %4, align 8, !tbaa !64
  %5 = getelementptr inbounds nuw i8, ptr %0, i64 40
  %6 = load ptr, ptr %5, align 8, !tbaa !65
  %7 = call i32 %6(ptr noundef %0, ptr noundef nonnull %2, i64 noundef 8, ptr noundef nonnull %3, ptr noundef nonnull %4, i32 noundef 0) #9
  %.not.i = icmp eq i32 %7, 0
  br i1 %.not.i, label %12, label %8

8:                                                ; preds = %1
  %9 = getelementptr inbounds nuw i8, ptr %0, i64 64
  %10 = load ptr, ptr %9, align 8, !tbaa !66
  %11 = call i32 %10(ptr noundef nonnull %0, i32 noundef 10, ptr noundef nonnull @.str.10) #9
  br label %read_magic_and_flags.exit

12:                                               ; preds = %1
  %13 = load i32, ptr %2, align 4, !tbaa !28
  %.not29.i = icmp eq i32 %13, 20000630
  br i1 %.not29.i, label %20, label %14

14:                                               ; preds = %12
  %15 = getelementptr inbounds nuw i8, ptr %0, i64 72
  %16 = load ptr, ptr %15, align 8, !tbaa !40
  %17 = getelementptr inbounds nuw i8, ptr %2, i64 4
  %18 = load i32, ptr %17, align 4, !tbaa !28
  %19 = call i32 (ptr, i32, ptr, ...) %16(ptr noundef nonnull %0, i32 noundef 6, ptr noundef nonnull @.str.11, i32 noundef %13, i32 noundef %13, i32 noundef %18) #9
  br label %read_magic_and_flags.exit

20:                                               ; preds = %12
  %21 = getelementptr inbounds nuw i8, ptr %2, i64 4
  %22 = load i32, ptr %21, align 4, !tbaa !28
  %23 = getelementptr inbounds nuw i8, ptr %0, i64 548
  store i32 %22, ptr %23, align 4, !tbaa !67
  %24 = trunc i32 %22 to i8
  %25 = getelementptr inbounds nuw i8, ptr %0, i64 1
  store i8 %24, ptr %25, align 1, !tbaa !68
  %26 = and i32 %22, 255
  %.not30.i = icmp eq i32 %26, 2
  br i1 %.not30.i, label %31, label %27

27:                                               ; preds = %20
  %28 = getelementptr inbounds nuw i8, ptr %0, i64 72
  %29 = load ptr, ptr %28, align 8, !tbaa !40
  %30 = call i32 (ptr, i32, ptr, ...) %29(ptr noundef nonnull %0, i32 noundef 6, ptr noundef nonnull @.str.12, i32 noundef %26, i32 noundef 20000630, i32 noundef %22) #9
  br label %read_magic_and_flags.exit

31:                                               ; preds = %20
  %32 = and i32 %22, -7936
  %.not31.i = icmp eq i32 %32, 0
  br i1 %.not31.i, label %read_magic_and_flags.exit, label %33

33:                                               ; preds = %31
  %34 = getelementptr inbounds nuw i8, ptr %0, i64 72
  %35 = load ptr, ptr %34, align 8, !tbaa !40
  %36 = call i32 (ptr, i32, ptr, ...) %35(ptr noundef nonnull %0, i32 noundef 6, ptr noundef nonnull @.str.13, i32 noundef 20000630, i32 noundef %22) #9
  br label %read_magic_and_flags.exit

read_magic_and_flags.exit:                        ; preds = %31, %8, %14, %27, %33
  %.0.i = phi i32 [ %7, %8 ], [ %19, %14 ], [ %30, %27 ], [ %36, %33 ], [ 0, %31 ]
  call void @llvm.lifetime.end.p0(i64 8, ptr nonnull %4) #9
  call void @llvm.lifetime.end.p0(i64 8, ptr nonnull %3) #9
  call void @llvm.lifetime.end.p0(i64 8, ptr nonnull %2) #9
  ret i32 %.0.i
}